; ModuleID = '57/1228.c'
source_filename = "57/1228.c"
target datalayout = "e-m:e-p270:32:32-p271:32:32-p272:64:64-i64:64-f80:128-n8:16:32:64-S128"
target triple = "x86_64-pc-linux-gnu"

@.str = private unnamed_addr constant [3 x i8] c"%d\00", align 1
@.str.1 = private unnamed_addr constant [3 x i8] c"%s\00", align 1
@.str.2 = private unnamed_addr constant [4 x i8] c"%s\0A\00", align 1

; Function Attrs: noinline nounwind uwtable
define dso_local i32 @main() #0 {
  %1 = alloca i32, align 4
  %2 = alloca i32, align 4
  %3 = alloca i32, align 4
  %4 = alloca [50 x [33 x i8]], align 16
  %5 = alloca i32, align 4
  store i32 0, i32* %1, align 4
  %6 = call i32 (i8*, ...) @__isoc99_scanf(i8* getelementptr inbounds ([3 x i8], [3 x i8]* @.str, i64 0, i64 0), i32* %2)
  store i32 0, i32* %5, align 4
  br label %7

7:                                                ; preds = %87, %0
  %8 = load i32, i32* %5, align 4
  %9 = load i32, i32* %2, align 4
  %10 = icmp slt i32 %8, %9
  br i1 %10, label %11, label %90

11:                                               ; preds = %7
  %12 = load i32, i32* %5, align 4
  %13 = sext i32 %12 to i64
  %14 = getelementptr inbounds [50 x [33 x i8]], [50 x [33 x i8]]* %4, i64 0, i64 %13
  %15 = getelementptr inbounds [33 x i8], [33 x i8]* %14, i64 0, i64 0
  %16 = call i32 (i8*, ...) @__isoc99_scanf(i8* getelementptr inbounds ([3 x i8], [3 x i8]* @.str.1, i64 0, i64 0), i8* %15)
  %17 = load i32, i32* %5, align 4
  %18 = sext i32 %17 to i64
  %19 = getelementptr inbounds [50 x [33 x i8]], [50 x [33 x i8]]* %4, i64 0, i64 %18
  %20 = getelementptr inbounds [33 x i8], [33 x i8]* %19, i64 0, i64 0
  %21 = call i64 @strlen(i8* %20) #3
  %22 = trunc i64 %21 to i32
  store i32 %22, i32* %3, align 4
  %23 = load i32, i32* %5, align 4
  %24 = sext i32 %23 to i64
  %25 = getelementptr inbounds [50 x [33 x i8]], [50 x [33 x i8]]* %4, i64 0, i64 %24
  %26 = load i32, i32* %3, align 4
  %27 = sub nsw i32 %26, 1
  %28 = sext i32 %27 to i64
  %29 = getelementptr inbounds [33 x i8], [33 x i8]* %25, i64 0, i64 %28
  %30 = load i8, i8* %29, align 1
  %31 = sext i8 %30 to i32
  %32 = icmp eq i32 %31, 114
  br i1 %32, label %33, label %41

33:                                               ; preds = %11
  %34 = load i32, i32* %5, align 4
  %35 = sext i32 %34 to i64
  %36 = getelementptr inbounds [50 x [33 x i8]], [50 x [33 x i8]]* %4, i64 0, i64 %35
  %37 = load i32, i32* %3, align 4
  %38 = sub nsw i32 %37, 2
  %39 = sext i32 %38 to i64
  %40 = getelementptr inbounds [33 x i8], [33 x i8]* %36, i64 0, i64 %39
  store i8 0, i8* %40, align 1
  br label %81

41:                                               ; preds = %11
  %42 = load i32, i32* %5, align 4
  %43 = sext i32 %42 to i64
  %44 = getelementptr inbounds [50 x [33 x i8]], [50 x [33 x i8]]* %4, i64 0, i64 %43
  %45 = load i32, i32* %3, align 4
  %46 = sub nsw i32 %45, 1
  %47 = sext i32 %46 to i64
  %48 = getelementptr inbounds [33 x i8], [33 x i8]* %44, i64 0, i64 %47
  %49 = load i8, i8* %48, align 1
  %50 = sext i8 %49 to i32
  %51 = icmp eq i32 %50, 103
  br i1 %51, label %52, label %60

52:                                               ; preds = %41
  %53 = load i32, i32* %5, align 4
  %54 = sext i32 %53 to i64
  %55 = getelementptr inbounds [50 x [33 x i8]], [50 x [33 x i8]]* %4, i64 0, i64 %54
  %56 = load i32, i32* %3, align 4
  %57 = sub nsw i32 %56, 3
  %58 = sext i32 %57 to i64
  %59 = getelementptr inbounds [33 x i8], [33 x i8]* %55, i64 0, i64 %58
  store i8 0, i8* %59, align 1
  br label %80

60:                                               ; preds = %41
  %61 = load i32, i32* %5, align 4
  %62 = sext i32 %61 to i64
  %63 = getelementptr inbounds [50 x [33 x i8]], [50 x [33 x i8]]* %4, i64 0, i64 %62
  %64 = load i32, i32* %3, align 4
  %65 = sub nsw i32 %64, 1
  %66 = sext i32 %65 to i64
  %67 = getelementptr inbounds [33 x i8], [33 x i8]* %63, i64 0, i64 %66
  %68 = load i8, i8* %67, align 1
  %69 = sext i8 %68 to i32
  %70 = icmp eq i32 %69, 121
  br i1 %70, label %71, label %79

71:                                               ; preds = %60
  %72 = load i32, i32* %5, align 4
  %73 = sext i32 %72 to i64
  %74 = getelementptr inbounds [50 x [33 x i8]], [50 x [33 x i8]]* %4, i64 0, i64 %73
  %75 = load i32, i32* %3, align 4
  %76 = sub nsw i32 %75, 2
  %77 = sext i32 %76 to i64
  %78 = getelementptr inbounds [33 x i8], [33 x i8]* %74, i64 0, i64 %77
  store i8 0, i8* %78, align 1
  br label %79

79:                                               ; preds = %71, %60
  br label %80

80:                                               ; preds = %79, %52
  br label %81

81:                                               ; preds = %80, %33
  %82 = load i32, i32* %5, align 4
  %83 = sext i32 %82 to i64
  %84 = getelementptr inbounds [50 x [33 x i8]], [50 x [33 x i8]]* %4, i64 0, i64 %83
  %85 = getelementptr inbounds [33 x i8], [33 x i8]* %84, i64 0, i64 0
  %86 = call i32 (i8*, ...) @printf(i8* getelementptr inbounds ([4 x i8], [4 x i8]* @.str.2, i64 0, i64 0), i8* %85)
  br label %87

87:                                               ; preds = %81
  %88 = load i32, i32* %5, align 4
  %89 = add nsw i32 %88, 1
  store i32 %89, i32* %5, align 4
  br label %7

90:                                               ; preds = %7
  ret i32 0
}

declare dso_local i32 @__isoc99_scanf(i8*, ...) #1

; Function Attrs: nounwind readonly
declare dso_local i64 @strlen(i8*) #2

declare dso_local i32 @printf(i8*, ...) #1


!llvm.module.flags = !{!0}
!llvm.ident = !{!1}

!0 = !{i32 1, !"wchar_size", i32 4}
!1 = !{!"clang version 10.0.0-4ubuntu1 "}
